target datalayout = "e-m:e-p270:32:32-p271:32:32-p272:64:64-i64:64-i128:128-f80:128-n8:16:32:64-S128"
target triple = "x86_64-pc-linux-gnu"

%struct.wkmap_aset_args = type { i64, i64 }

; Function Attrs: nounwind sspstrong uwtable
define internal i32 @wkmap_aset_replace(ptr noundef %0, ptr noundef %1, i64 noundef %2, i32 noundef %3) #0 {
  %5 = alloca ptr, align 8
  %6 = alloca ptr, align 8
  %7 = alloca i64, align 8
  %8 = alloca i32, align 4
  %9 = alloca ptr, align 8
  store ptr %0, ptr %5, align 8, !tbaa !48
  store ptr %1, ptr %6, align 8, !tbaa !48
  store i64 %2, ptr %7, align 8, !tbaa !7
  store i32 %3, ptr %8, align 4, !tbaa !46
  call void @llvm.lifetime.start.p0(i64 8, ptr %9) #15
  %10 = load i64, ptr %7, align 8, !tbaa !7
  %11 = inttoptr i64 %10 to ptr
  store ptr %11, ptr %9, align 8, !tbaa !62
  %12 = load i32, ptr %8, align 4, !tbaa !46
  %13 = icmp ne i32 %12, 0
  br i1 %13, label %18, label %14

14:                                               ; preds = %4
  %15 = call noalias nonnull ptr @ruby_xmalloc(i64 noundef 8) #19
  %16 = ptrtoint ptr %15 to i64
  %17 = load ptr, ptr %5, align 8, !tbaa !48
  store i64 %16, ptr %17, align 8, !tbaa !7
  br label %18

18:                                               ; preds = %14, %4
  %19 = load ptr, ptr %9, align 8, !tbaa !62
  %20 = getelementptr inbounds nuw %struct.wkmap_aset_args, ptr %19, i32 0, i32 0
  %21 = load i64, ptr %20, align 8, !tbaa !24
  %22 = load ptr, ptr %5, align 8, !tbaa !48
  %23 = load i64, ptr %22, align 8, !tbaa !7
  %24 = inttoptr i64 %23 to ptr
  store i64 %21, ptr %24, align 8, !tbaa !7
  %25 = load ptr, ptr %9, align 8, !tbaa !62
  %26 = getelementptr inbounds nuw %struct.wkmap_aset_args, ptr %25, i32 0, i32 1
  %27 = load i64, ptr %26, align 8, !tbaa !26
  %28 = load ptr, ptr %6, align 8, !tbaa !48
  store i64 %27, ptr %28, align 8, !tbaa !7
  call void @llvm.lifetime.end.p0(i64 8, ptr %9) #15
  ret i32 0
}