; Function Attrs: nounwind sspstrong uwtable
define internal noundef i32 @wkmap_aset_replace(ptr noundef captures(none) %0, ptr noundef writeonly captures(none) initializes((0, 8)) %1, i64 noundef %2, i32 noundef %3) #0 {
  %.not = icmp eq i32 %3, 0
  br i1 %.not, label %5, label %._crit_edge

._crit_edge:                                      ; preds = %4
  %.pre = load i64, ptr %0, align 8, !tbaa !7
  %.pre.ptr = inttoptr i64 %.pre to ptr
  br label %8

5:                                                ; preds = %4
  %6 = tail call noalias nonnull dereferenceable(8) ptr @ruby_xmalloc(i64 noundef 8) #13
  %7 = ptrtoint ptr %6 to i64
  store i64 %7, ptr %0, align 8, !tbaa !7
  br label %8

8:                                                ; preds = %._crit_edge, %5
  %.ptr = phi ptr [ %.pre.ptr, %._crit_edge ], [ %6, %5 ]
  %9 = inttoptr i64 %2 to ptr
  %10 = load i64, ptr %9, align 8, !tbaa !32
  store i64 %10, ptr %.ptr, align 8, !tbaa !7
  %11 = getelementptr inbounds nuw i8, ptr %9, i64 8
  %12 = load i64, ptr %11, align 8, !tbaa !34
  store i64 %12, ptr %1, align 8, !tbaa !7
  ret i32 0
}